target datalayout = "e-m:e-p270:32:32-p271:32:32-p272:64:64-i64:64-i128:128-f80:128-n8:16:32:64-S128"
target triple = "x86_64-pc-linux-gnu"

%class.Type = type { i32, ptr, i32, %"class.std::vector.8", %"class.std::vector.13", i32, i8, i8, i8, i8, i8, %"class.std::vector.18", %"class.std::vector.23" }
%"class.std::vector.8" = type { %"struct.std::_Vector_base.9" }
%"struct.std::_Vector_base.9" = type { %"struct.std::_Vector_base<unsigned int, std::allocator<unsigned int>>::_Vector_impl" }
%"struct.std::_Vector_base<unsigned int, std::allocator<unsigned int>>::_Vector_impl" = type { %"struct.std::_Vector_base<unsigned int, std::allocator<unsigned int>>::_Vector_impl_data" }
%"struct.std::_Vector_base<unsigned int, std::allocator<unsigned int>>::_Vector_impl_data" = type { ptr, ptr, ptr }
%"class.std::vector.13" = type { %"struct.std::_Vector_base.14" }
%"struct.std::_Vector_base.14" = type { %"struct.std::_Vector_base<const Type *, std::allocator<const Type *>>::_Vector_impl" }
%"struct.std::_Vector_base<const Type *, std::allocator<const Type *>>::_Vector_impl" = type { %"struct.std::_Vector_base<const Type *, std::allocator<const Type *>>::_Vector_impl_data" }
%"struct.std::_Vector_base<const Type *, std::allocator<const Type *>>::_Vector_impl_data" = type { ptr, ptr, ptr }
%"class.std::vector.18" = type { %"struct.std::_Vector_base.19" }
%"struct.std::_Vector_base.19" = type { %"struct.std::_Vector_base<CVQualifiers, std::allocator<CVQualifiers>>::_Vector_impl" }
%"struct.std::_Vector_base<CVQualifiers, std::allocator<CVQualifiers>>::_Vector_impl" = type { %"struct.std::_Vector_base<CVQualifiers, std::allocator<CVQualifiers>>::_Vector_impl_data" }
%"struct.std::_Vector_base<CVQualifiers, std::allocator<CVQualifiers>>::_Vector_impl_data" = type { ptr, ptr, ptr }
%"class.std::vector.23" = type { %"struct.std::_Vector_base.24" }
%"struct.std::_Vector_base.24" = type { %"struct.std::_Vector_base<int, std::allocator<int>>::_Vector_impl" }
%"struct.std::_Vector_base<int, std::allocator<int>>::_Vector_impl" = type { %"struct.std::_Vector_base<int, std::allocator<int>>::_Vector_impl_data" }
%"struct.std::_Vector_base<int, std::allocator<int>>::_Vector_impl_data" = type { ptr, ptr, ptr }

; Function Attrs: mustprogress nounwind uwtable
define linkonce_odr dso_local noundef nonnull align 8 dereferenceable(8) ptr @_ZNKSt6vectorIPK4TypeSaIS2_EEixEm(ptr noundef nonnull align 8 dereferenceable(24) %0, i64 noundef %1) #4 comdat align 2 {
  %3 = alloca ptr, align 8
  %4 = alloca i64, align 8
  store ptr %0, ptr %3, align 8
  store i64 %1, ptr %4, align 8
  %5 = load ptr, ptr %3, align 8
  %6 = getelementptr inbounds %"struct.std::_Vector_base.14", ptr %5, i32 0, i32 0
  %7 = getelementptr inbounds %"struct.std::_Vector_base<const Type *, std::allocator<const Type *>>::_Vector_impl_data", ptr %6, i32 0, i32 0
  %8 = load ptr, ptr %7, align 8
  %9 = load i64, ptr %4, align 8
  %10 = getelementptr inbounds ptr, ptr %8, i64 %9
  ret ptr %10
}

; Function Attrs: mustprogress nounwind uwtable
define linkonce_odr dso_local noundef nonnull align 4 dereferenceable(4) ptr @_ZNKSt6vectorIiSaIiEEixEm(ptr noundef nonnull align 8 dereferenceable(24) %0, i64 noundef %1) #4 comdat align 2 {
  %3 = alloca ptr, align 8
  %4 = alloca i64, align 8
  store ptr %0, ptr %3, align 8
  store i64 %1, ptr %4, align 8
  %5 = load ptr, ptr %3, align 8
  %6 = getelementptr inbounds %"struct.std::_Vector_base.24", ptr %5, i32 0, i32 0
  %7 = getelementptr inbounds %"struct.std::_Vector_base<int, std::allocator<int>>::_Vector_impl_data", ptr %6, i32 0, i32 0
  %8 = load ptr, ptr %7, align 8
  %9 = load i64, ptr %4, align 8
  %10 = getelementptr inbounds i32, ptr %8, i64 %9
  ret ptr %10
}

; Function Attrs: mustprogress nounwind uwtable
define dso_local noundef zeroext i1 @_ZNK4Type11is_bitfieldEm(ptr noundef nonnull align 8 dereferenceable(136) %0, i64 noundef %1) #4 align 2 {
  %3 = alloca ptr, align 8
  %4 = alloca i64, align 8
  store ptr %0, ptr %3, align 8
  store i64 %1, ptr %4, align 8
  %5 = load ptr, ptr %3, align 8
  %6 = getelementptr inbounds %class.Type, ptr %5, i32 0, i32 12
  %7 = load i64, ptr %4, align 8
  %8 = call noundef nonnull align 4 dereferenceable(4) ptr @_ZNKSt6vectorIiSaIiEEixEm(ptr noundef nonnull align 8 dereferenceable(24) %6, i64 noundef %7) #3
  %9 = load i32, ptr %8, align 4
  %10 = icmp sge i32 %9, 0
  ret i1 %10
}

; Function Attrs: mustprogress nounwind uwtable
define linkonce_odr dso_local noundef i64 @_ZNKSt6vectorIPK4TypeSaIS2_EE4sizeEv(ptr noundef nonnull align 8 dereferenceable(24) %0) #4 comdat align 2 {
  %2 = alloca ptr, align 8
  store ptr %0, ptr %2, align 8
  %3 = load ptr, ptr %2, align 8
  %4 = getelementptr inbounds %"struct.std::_Vector_base.14", ptr %3, i32 0, i32 0
  %5 = getelementptr inbounds %"struct.std::_Vector_base<const Type *, std::allocator<const Type *>>::_Vector_impl_data", ptr %4, i32 0, i32 1
  %6 = load ptr, ptr %5, align 8
  %7 = getelementptr inbounds %"struct.std::_Vector_base.14", ptr %3, i32 0, i32 0
  %8 = getelementptr inbounds %"struct.std::_Vector_base<const Type *, std::allocator<const Type *>>::_Vector_impl_data", ptr %7, i32 0, i32 0
  %9 = load ptr, ptr %8, align 8
  %10 = ptrtoint ptr %6 to i64
  %11 = ptrtoint ptr %9 to i64
  %12 = sub i64 %10, %11
  %13 = sdiv exact i64 %12, 8
  ret i64 %13
}

; Function Attrs: mustprogress uwtable
define dso_local noundef i64 @_ZNK4Type11SizeInBytesEv(ptr noundef nonnull align 8 dereferenceable(136) %0) #5 align 2 {
  %2 = alloca i64, align 8
  %3 = alloca ptr, align 8
  %4 = alloca i64, align 8
  %5 = alloca i32, align 4
  %6 = alloca i32, align 4
  %7 = alloca i32, align 4
  %8 = alloca i32, align 4
  store ptr %0, ptr %3, align 8
  %9 = load ptr, ptr %3, align 8
  %10 = getelementptr inbounds %class.Type, ptr %9, i32 0, i32 0
  %11 = load i32, ptr %10, align 8
  switch i32 %11, label %12 [
    i32 0, label %13
    i32 2, label %31
    i32 3, label %76
    i32 1, label %112
  ]

12:                                               ; preds = %1
  br label %114

13:                                               ; preds = %1
  %14 = getelementptr inbounds %class.Type, ptr %9, i32 0, i32 2
  %15 = load i32, ptr %14, align 8
  switch i32 %15, label %30 [
    i32 0, label %16
    i32 2, label %17
    i32 3, label %18
    i32 1, label %19
    i32 4, label %20
    i32 5, label %21
    i32 6, label %22
    i32 7, label %23
    i32 8, label %24
    i32 9, label %25
    i32 11, label %26
    i32 10, label %27
    i32 12, label %28
    i32 13, label %29
  ]

16:                                               ; preds = %13
  store i64 0, ptr %2, align 8
  br label %115

17:                                               ; preds = %13
  store i64 4, ptr %2, align 8
  br label %115

18:                                               ; preds = %13
  store i64 2, ptr %2, align 8
  br label %115

19:                                               ; preds = %13
  store i64 1, ptr %2, align 8
  br label %115

20:                                               ; preds = %13
  store i64 4, ptr %2, align 8
  br label %115

21:                                               ; preds = %13
  store i64 8, ptr %2, align 8
  br label %115

22:                                               ; preds = %13
  store i64 1, ptr %2, align 8
  br label %115

23:                                               ; preds = %13
  store i64 4, ptr %2, align 8
  br label %115

24:                                               ; preds = %13
  store i64 2, ptr %2, align 8
  br label %115

25:                                               ; preds = %13
  store i64 4, ptr %2, align 8
  br label %115

26:                                               ; preds = %13
  store i64 8, ptr %2, align 8
  br label %115

27:                                               ; preds = %13
  store i64 4, ptr %2, align 8
  br label %115

28:                                               ; preds = %13
  store i64 16, ptr %2, align 8
  br label %115

29:                                               ; preds = %13
  store i64 16, ptr %2, align 8
  br label %115

30:                                               ; preds = %13
  br label %114

31:                                               ; preds = %1
  store i32 0, ptr %5, align 4
  store i64 0, ptr %4, align 8
  br label %32

32:                                               ; preds = %70, %31
  %33 = load i64, ptr %4, align 8
  %34 = getelementptr inbounds %class.Type, ptr %9, i32 0, i32 4
  %35 = call noundef i64 @_ZNKSt6vectorIPK4TypeSaIS2_EE4sizeEv(ptr noundef nonnull align 8 dereferenceable(24) %34) #3
  %36 = icmp ult i64 %33, %35
  br i1 %36, label %37, label %73

37:                                               ; preds = %32
  store i32 0, ptr %6, align 4
  %38 = load i64, ptr %4, align 8
  %39 = call noundef zeroext i1 @_ZNK4Type11is_bitfieldEm(ptr noundef nonnull align 8 dereferenceable(136) %9, i64 noundef %38)
  br i1 %39, label %40, label %50

40:                                               ; preds = %37
  %41 = getelementptr inbounds %class.Type, ptr %9, i32 0, i32 12
  %42 = load i64, ptr %4, align 8
  %43 = call noundef nonnull align 4 dereferenceable(4) ptr @_ZNKSt6vectorIiSaIiEEixEm(ptr noundef nonnull align 8 dereferenceable(24) %41, i64 noundef %42) #3
  %44 = load i32, ptr %43, align 4
  %45 = sitofp i32 %44 to double
  %46 = fdiv double %45, 8.000000e+00
  %47 = call double @llvm.ceil.f64(double %46)
  %48 = fmul double %47, 8.000000e+00
  %49 = fptosi double %48 to i32
  store i32 %49, ptr %6, align 4
  br label %57

50:                                               ; preds = %37
  %51 = getelementptr inbounds %class.Type, ptr %9, i32 0, i32 4
  %52 = load i64, ptr %4, align 8
  %53 = call noundef nonnull align 8 dereferenceable(8) ptr @_ZNKSt6vectorIPK4TypeSaIS2_EEixEm(ptr noundef nonnull align 8 dereferenceable(24) %51, i64 noundef %52) #3
  %54 = load ptr, ptr %53, align 8
  %55 = call noundef i64 @_ZNK4Type11SizeInBytesEv(ptr noundef nonnull align 8 dereferenceable(136) %54)
  %56 = trunc i64 %55 to i32
  store i32 %56, ptr %6, align 4
  br label %57

57:                                               ; preds = %50, %40
  %58 = load i32, ptr %6, align 4
  %59 = icmp eq i32 %58, 65535
  br i1 %59, label %60, label %63

60:                                               ; preds = %57
  %61 = load i32, ptr %6, align 4
  %62 = zext i32 %61 to i64
  store i64 %62, ptr %2, align 8
  br label %115

63:                                               ; preds = %57
  %64 = load i32, ptr %6, align 4
  %65 = load i32, ptr %5, align 4
  %66 = icmp ugt i32 %64, %65
  br i1 %66, label %67, label %69

67:                                               ; preds = %63
  %68 = load i32, ptr %6, align 4
  store i32 %68, ptr %5, align 4
  br label %69

69:                                               ; preds = %67, %63
  br label %70

70:                                               ; preds = %69
  %71 = load i64, ptr %4, align 8
  %72 = add i64 %71, 1
  store i64 %72, ptr %4, align 8
  br label %32, !llvm.loop !14

73:                                               ; preds = %32
  %74 = load i32, ptr %5, align 4
  %75 = zext i32 %74 to i64
  store i64 %75, ptr %2, align 8
  br label %115

76:                                               ; preds = %1
  %77 = getelementptr inbounds %class.Type, ptr %9, i32 0, i32 8
  %78 = load i8, ptr %77, align 2
  %79 = trunc i8 %78 to i1
  br i1 %79, label %81, label %80

80:                                               ; preds = %76
  store i64 65535, ptr %2, align 8
  br label %115

81:                                               ; preds = %76
  %82 = call noundef zeroext i1 @_ZNK4Type13has_bitfieldsEv(ptr noundef nonnull align 8 dereferenceable(136) %9)
  br i1 %82, label %83, label %84

83:                                               ; preds = %81
  store i64 65535, ptr %2, align 8
  br label %115

84:                                               ; preds = %81
  store i32 0, ptr %7, align 4
  store i64 0, ptr %4, align 8
  br label %85

85:                                               ; preds = %106, %84
  %86 = load i64, ptr %4, align 8
  %87 = getelementptr inbounds %class.Type, ptr %9, i32 0, i32 4
  %88 = call noundef i64 @_ZNKSt6vectorIPK4TypeSaIS2_EE4sizeEv(ptr noundef nonnull align 8 dereferenceable(24) %87) #3
  %89 = icmp ult i64 %86, %88
  br i1 %89, label %90, label %109

90:                                               ; preds = %85
  %91 = getelementptr inbounds %class.Type, ptr %9, i32 0, i32 4
  %92 = load i64, ptr %4, align 8
  %93 = call noundef nonnull align 8 dereferenceable(8) ptr @_ZNKSt6vectorIPK4TypeSaIS2_EEixEm(ptr noundef nonnull align 8 dereferenceable(24) %91, i64 noundef %92) #3
  %94 = load ptr, ptr %93, align 8
  %95 = call noundef i64 @_ZNK4Type11SizeInBytesEv(ptr noundef nonnull align 8 dereferenceable(136) %94)
  %96 = trunc i64 %95 to i32
  store i32 %96, ptr %8, align 4
  %97 = load i32, ptr %8, align 4
  %98 = icmp eq i32 %97, 65535
  br i1 %98, label %99, label %102

99:                                               ; preds = %90
  %100 = load i32, ptr %8, align 4
  %101 = zext i32 %100 to i64
  store i64 %101, ptr %2, align 8
  br label %115

102:                                              ; preds = %90
  %103 = load i32, ptr %8, align 4
  %104 = load i32, ptr %7, align 4
  %105 = add i32 %104, %103
  store i32 %105, ptr %7, align 4
  br label %106

106:                                              ; preds = %102
  %107 = load i64, ptr %4, align 8
  %108 = add i64 %107, 1
  store i64 %108, ptr %4, align 8
  br label %85, !llvm.loop !15

109:                                              ; preds = %85
  %110 = load i32, ptr %7, align 4
  %111 = zext i32 %110 to i64
  store i64 %111, ptr %2, align 8
  br label %115

112:                                              ; preds = %1
  %113 = call noundef i32 @_ZN9CGOptions12pointer_sizeEv()
  br label %114

114:                                              ; preds = %112, %30, %12
  store i64 0, ptr %2, align 8
  br label %115

115:                                              ; preds = %114, %109, %99, %83, %80, %73, %60, %29, %28, %27, %26, %25, %24, %23, %22, %21, %20, %19, %18, %17, %16
  %116 = load i64, ptr %2, align 8
  ret i64 %116
}