; Function Attrs: mustprogress uwtable
define dso_local noundef i64 @_ZNK4Type11SizeInBytesEv(ptr nocapture noundef nonnull readonly align 8 dereferenceable(136) %0) local_unnamed_addr #4 align 2 {
  %2 = load i32, ptr %0, align 8
  switch i32 %2, label %.loopexit [
    i32 0, label %8
    i32 2, label %.preheader
    i32 3, label %40
    i32 1, label %66
  ]

.preheader:                                       ; preds = %1
  %3 = getelementptr inbounds i8, ptr %0, i64 48
  %4 = getelementptr inbounds i8, ptr %0, i64 56
  %5 = load ptr, ptr %4, align 8
  %6 = load ptr, ptr %3, align 8
  %.not41 = icmp eq ptr %5, %6
  br i1 %.not41, label %.loopexit, label %.lr.ph36

.lr.ph36:                                         ; preds = %.preheader
  %7 = getelementptr inbounds i8, ptr %0, i64 112
  br label %12

8:                                                ; preds = %1
  %9 = getelementptr inbounds i8, ptr %0, i64 16
  %10 = load i32, ptr %9, align 8
  %switch.tableidx = add i32 %10, -1
  %11 = icmp ult i32 %switch.tableidx, 13
  br i1 %11, label %switch.lookup, label %.loopexit

12:                                               ; preds = %.lr.ph36, %31
  %13 = phi ptr [ %6, %.lr.ph36 ], [ %34, %31 ]
  %.02235 = phi i32 [ 0, %.lr.ph36 ], [ %spec.select, %31 ]
  %.02334 = phi i64 [ 0, %.lr.ph36 ], [ %32, %31 ]
  %14 = load ptr, ptr %7, align 8
  %15 = getelementptr inbounds i32, ptr %14, i64 %.02334
  %16 = load i32, ptr %15, align 4
  %17 = icmp sgt i32 %16, -1
  br i1 %17, label %18, label %24

18:                                               ; preds = %12
  %19 = sitofp i32 %16 to double
  %20 = fmul double %19, 1.250000e-01
  %21 = tail call double @llvm.ceil.f64(double %20)
  %22 = fmul double %21, 8.000000e+00
  %23 = fptosi double %22 to i32
  br label %29

24:                                               ; preds = %12
  %25 = getelementptr inbounds ptr, ptr %13, i64 %.02334
  %26 = load ptr, ptr %25, align 8
  %27 = tail call noundef i64 @_ZNK4Type11SizeInBytesEv(ptr noundef nonnull align 8 dereferenceable(136) %26)
  %28 = trunc i64 %27 to i32
  br label %29

29:                                               ; preds = %24, %18
  %.021 = phi i32 [ %23, %18 ], [ %28, %24 ]
  %30 = icmp eq i32 %.021, 65535
  br i1 %30, label %.loopexit, label %31

31:                                               ; preds = %29
  %spec.select = tail call i32 @llvm.umax.i32(i32 %.021, i32 %.02235)
  %32 = add nuw i64 %.02334, 1
  %33 = load ptr, ptr %4, align 8
  %34 = load ptr, ptr %3, align 8
  %35 = ptrtoint ptr %33 to i64
  %36 = ptrtoint ptr %34 to i64
  %37 = sub i64 %35, %36
  %38 = ashr exact i64 %37, 3
  %39 = icmp ult i64 %32, %38
  br i1 %39, label %12, label %.loopexit, !llvm.loop !15

40:                                               ; preds = %1
  %41 = getelementptr inbounds i8, ptr %0, i64 78
  %42 = load i8, ptr %41, align 2
  %43 = and i8 %42, 1
  %.not = icmp eq i8 %43, 0
  br i1 %.not, label %.loopexit, label %44

44:                                               ; preds = %40
  %45 = tail call noundef zeroext i1 @_ZNK4Type13has_bitfieldsEv(ptr noundef nonnull align 8 dereferenceable(136) %0)
  br i1 %45, label %.loopexit, label %.preheader27

.preheader27:                                     ; preds = %44
  %46 = getelementptr inbounds i8, ptr %0, i64 48
  %47 = getelementptr inbounds i8, ptr %0, i64 56
  %48 = load ptr, ptr %47, align 8
  %49 = load ptr, ptr %46, align 8
  %.not40 = icmp eq ptr %48, %49
  br i1 %.not40, label %.loopexit, label %.lr.ph

.lr.ph:                                           ; preds = %.preheader27, %56
  %50 = phi ptr [ %60, %56 ], [ %49, %.preheader27 ]
  %.02031 = phi i32 [ %57, %56 ], [ 0, %.preheader27 ]
  %.12430 = phi i64 [ %58, %56 ], [ 0, %.preheader27 ]
  %51 = getelementptr inbounds ptr, ptr %50, i64 %.12430
  %52 = load ptr, ptr %51, align 8
  %53 = tail call noundef i64 @_ZNK4Type11SizeInBytesEv(ptr noundef nonnull align 8 dereferenceable(136) %52)
  %54 = trunc i64 %53 to i32
  %55 = icmp eq i32 %54, 65535
  br i1 %55, label %.loopexit, label %56

56:                                               ; preds = %.lr.ph
  %57 = add i32 %.02031, %54
  %58 = add nuw i64 %.12430, 1
  %59 = load ptr, ptr %47, align 8
  %60 = load ptr, ptr %46, align 8
  %61 = ptrtoint ptr %59 to i64
  %62 = ptrtoint ptr %60 to i64
  %63 = sub i64 %61, %62
  %64 = ashr exact i64 %63, 3
  %65 = icmp ult i64 %58, %64
  br i1 %65, label %.lr.ph, label %.loopexit, !llvm.loop !16

66:                                               ; preds = %1
  %67 = tail call noundef i32 @_ZN9CGOptions12pointer_sizeEv()
  br label %.loopexit

switch.lookup:                                    ; preds = %8
  %68 = zext nneg i32 %switch.tableidx to i64
  %switch.gep = getelementptr inbounds [13 x i32], ptr @switch.table._ZNK4Type11SizeInBytesEv, i64 0, i64 %68
  %switch.load = load i32, ptr %switch.gep, align 4
  br label %.loopexit

.loopexit:                                        ; preds = %.lr.ph, %56, %29, %31, %switch.lookup, %8, %.preheader27, %.preheader, %66, %1, %44, %40
  %.0.shrunk = phi i32 [ 65535, %40 ], [ 65535, %44 ], [ 0, %8 ], [ 0, %1 ], [ 0, %66 ], [ 0, %.preheader ], [ 0, %.preheader27 ], [ %switch.load, %switch.lookup ], [ 65535, %29 ], [ %spec.select, %31 ], [ 65535, %.lr.ph ], [ %57, %56 ]
  %.0 = zext i32 %.0.shrunk to i64
  ret i64 %.0
}